target datalayout = "e-m:e-p270:32:32-p271:32:32-p272:64:64-i64:64-i128:128-f80:128-n8:16:32:64-S128"
target triple = "x86_64-pc-linux-gnu"

%union.SourceSpan = type { i64 }
%struct.Signature_ = type <{ %struct.CalleeAttributes, i16, i8, i32, i32, [4 x i8], ptr }>
%struct.CalleeAttributes = type { i8 }
%struct.Decl_ = type { ptr, ptr, %union.SourceSpan, i64, %union.anon, i32, %union.anon.0, i64, ptr, ptr, ptr, %union.anon.1 }
%union.anon = type { ptr }
%union.anon.0 = type { i16 }
%union.anon.1 = type { %struct.FuncDecl }
%struct.FuncDecl = type { i32, [4 x i8], %struct.Signature_, i32, i32, %union.anon.8 }
%union.anon.8 = type { %struct.anon.9 }
%struct.anon.9 = type { i16, %union.anon.10 }
%union.anon.10 = type { ptr }
%struct.VHeader_ = type { i32, i32, [0 x i8] }
%struct.VarDecl_ = type { i32, i32, %union.anon.14, %union.anon.15 }
%union.anon.14 = type { ptr }
%union.anon.15 = type { %struct.anon.16 }
%struct.anon.16 = type { ptr, %union.SourceSpan }
%struct.AttrDecl = type { ptr, ptr }

@.str.54 = private unnamed_addr constant [31 x i8] c"Duplicate parameter name '%s'.\00", align 1
@.str.247 = private unnamed_addr constant [57 x i8] c"Expected a simple replacement parameter e.g. 'val' here.\00", align 1
@.str.248 = private unnamed_addr constant [45 x i8] c"Type is not allowed on attribute parameters.\00", align 1
@.str.249 = private unnamed_addr constant [50 x i8] c"Attribute parameters may not have default values.\00", align 1

; Function Attrs: nounwind uwtable
define internal zeroext i1 @sema_analyse_attributes(ptr noundef %0, ptr noundef %1, ptr noundef %2, i32 noundef %3, ptr noundef %4) #0 {
  %6 = alloca ptr, align 8
  %7 = alloca ptr, align 8
  %8 = alloca ptr, align 8
  %9 = alloca i32, align 4
  %10 = alloca ptr, align 8
  store ptr %0, ptr %6, align 8
  store ptr %1, ptr %7, align 8
  store ptr %2, ptr %8, align 8
  store i32 %3, ptr %9, align 4
  store ptr %4, ptr %10, align 8
  %11 = load ptr, ptr %6, align 8
  %12 = load ptr, ptr %7, align 8
  %13 = load ptr, ptr %8, align 8
  %14 = load i32, ptr %9, align 4
  %15 = load ptr, ptr %10, align 8
  %16 = call zeroext i1 @sema_analyse_attributes_inner(ptr noundef %11, ptr noundef %12, ptr noundef %13, i32 noundef %14, ptr noundef null, ptr noundef %15)
  ret i1 %16
}

; Function Attrs: nounwind uwtable
define internal zeroext i1 @sema_analyse_attribute_decl(ptr noundef %0, ptr noundef %1, ptr noundef %2) #0 {
  %4 = alloca ptr, align 8
  %5 = alloca i32, align 4
  %6 = alloca ptr, align 8
  %7 = alloca ptr, align 8
  %8 = alloca i1, align 1
  %9 = alloca ptr, align 8
  %10 = alloca ptr, align 8
  %11 = alloca ptr, align 8
  %12 = alloca ptr, align 8
  %13 = alloca i32, align 4
  %14 = alloca i32, align 4
  %15 = alloca ptr, align 8
  %16 = alloca i32, align 4
  store ptr %0, ptr %9, align 8
  store ptr %1, ptr %10, align 8
  store ptr %2, ptr %11, align 8
  %17 = load ptr, ptr %9, align 8
  %18 = load ptr, ptr %10, align 8
  %19 = load ptr, ptr %10, align 8
  %20 = getelementptr inbounds %struct.Decl_, ptr %19, i32 0, i32 9
  %21 = load ptr, ptr %20, align 8
  %22 = load ptr, ptr %11, align 8
  %23 = call zeroext i1 @sema_analyse_attributes(ptr noundef %17, ptr noundef %18, ptr noundef %21, i32 noundef 256, ptr noundef %22)
  br i1 %23, label %35, label %24

24:                                               ; preds = %3
  %25 = load ptr, ptr %10, align 8
  store ptr %25, ptr %4, align 8
  %26 = load ptr, ptr %4, align 8
  %27 = getelementptr inbounds %struct.Decl_, ptr %26, i32 0, i32 3
  %28 = load i64, ptr %27, align 8
  %29 = and i64 %28, -128
  store i64 %29, ptr %27, align 8
  %30 = load ptr, ptr %4, align 8
  %31 = getelementptr inbounds %struct.Decl_, ptr %30, i32 0, i32 3
  %32 = load i64, ptr %31, align 8
  %33 = and i64 %32, -897
  %34 = or i64 %33, 256
  store i64 %34, ptr %31, align 8
  store i1 false, ptr %8, align 1
  br label %136

35:                                               ; preds = %3
  %36 = load ptr, ptr %11, align 8
  %37 = load i8, ptr %36, align 1
  %38 = trunc i8 %37 to i1
  br i1 %38, label %39, label %40

39:                                               ; preds = %35
  store i1 true, ptr %8, align 1
  br label %136

40:                                               ; preds = %35
  %41 = load ptr, ptr %10, align 8
  %42 = getelementptr inbounds %struct.Decl_, ptr %41, i32 0, i32 11
  %43 = getelementptr inbounds %struct.AttrDecl, ptr %42, i32 0, i32 0
  %44 = load ptr, ptr %43, align 8
  store ptr %44, ptr %12, align 8
  %45 = load ptr, ptr %12, align 8
  store ptr %45, ptr %6, align 8
  %46 = load ptr, ptr %6, align 8
  %47 = icmp ne ptr %46, null
  br i1 %47, label %49, label %48

48:                                               ; preds = %40
  store i32 0, ptr %5, align 4
  br label %54

49:                                               ; preds = %40
  %50 = load ptr, ptr %6, align 8
  store ptr %50, ptr %7, align 8
  %51 = load ptr, ptr %7, align 8
  %52 = getelementptr inbounds %struct.VHeader_, ptr %51, i64 -1
  %53 = load i32, ptr %52, align 4
  store i32 %53, ptr %5, align 4
  br label %54

54:                                               ; preds = %49, %48
  %55 = load i32, ptr %5, align 4
  store i32 %55, ptr %13, align 4
  store i32 0, ptr %14, align 4
  br label %56

56:                                               ; preds = %132, %54
  %57 = load i32, ptr %14, align 4
  %58 = load i32, ptr %13, align 4
  %59 = icmp ult i32 %57, %58
  br i1 %59, label %60, label %135

60:                                               ; preds = %56
  %61 = load ptr, ptr %12, align 8
  %62 = load i32, ptr %14, align 4
  %63 = zext i32 %62 to i64
  %64 = getelementptr inbounds ptr, ptr %61, i64 %63
  %65 = load ptr, ptr %64, align 8
  store ptr %65, ptr %15, align 8
  %66 = load ptr, ptr %15, align 8
  %67 = getelementptr inbounds %struct.Decl_, ptr %66, i32 0, i32 11
  %68 = load i32, ptr %67, align 8
  %69 = and i32 %68, 255
  %70 = icmp ne i32 %69, 3
  br i1 %70, label %71, label %76

71:                                               ; preds = %60
  %72 = load ptr, ptr %15, align 8
  %73 = getelementptr inbounds %struct.Decl_, ptr %72, i32 0, i32 2
  %74 = getelementptr inbounds %union.SourceSpan, ptr %73, i32 0, i32 0
  %75 = load i64, ptr %74, align 8
  call void (i64, ptr, ...) @sema_error_at(i64 %75, ptr noundef @.str.247)
  store i1 false, ptr %8, align 1
  br label %136

76:                                               ; preds = %60
  %77 = load ptr, ptr %15, align 8
  %78 = getelementptr inbounds %struct.Decl_, ptr %77, i32 0, i32 11
  %79 = getelementptr inbounds %struct.VarDecl_, ptr %78, i32 0, i32 1
  %80 = load i32, ptr %79, align 4
  %81 = icmp ne i32 %80, 0
  br i1 %81, label %82, label %87

82:                                               ; preds = %76
  %83 = load ptr, ptr %15, align 8
  %84 = getelementptr inbounds %struct.Decl_, ptr %83, i32 0, i32 2
  %85 = getelementptr inbounds %union.SourceSpan, ptr %84, i32 0, i32 0
  %86 = load i64, ptr %85, align 8
  call void (i64, ptr, ...) @sema_error_at(i64 %86, ptr noundef @.str.248)
  store i1 false, ptr %8, align 1
  br label %136

87:                                               ; preds = %76
  %88 = load ptr, ptr %15, align 8
  %89 = getelementptr inbounds %struct.Decl_, ptr %88, i32 0, i32 11
  %90 = getelementptr inbounds %struct.VarDecl_, ptr %89, i32 0, i32 2
  %91 = load ptr, ptr %90, align 8
  %92 = icmp ne ptr %91, null
  br i1 %92, label %93, label %98

93:                                               ; preds = %87
  %94 = load ptr, ptr %15, align 8
  %95 = getelementptr inbounds %struct.Decl_, ptr %94, i32 0, i32 2
  %96 = getelementptr inbounds %union.SourceSpan, ptr %95, i32 0, i32 0
  %97 = load i64, ptr %96, align 8
  call void (i64, ptr, ...) @sema_error_at(i64 %97, ptr noundef @.str.249)
  store i1 false, ptr %8, align 1
  br label %136

98:                                               ; preds = %87
  %99 = load ptr, ptr %15, align 8
  %100 = getelementptr inbounds %struct.Decl_, ptr %99, i32 0, i32 3
  %101 = load i64, ptr %100, align 8
  %102 = and i64 %101, -897
  %103 = or i64 %102, 256
  store i64 %103, ptr %100, align 8
  store i32 0, ptr %16, align 4
  br label %104

104:                                              ; preds = %128, %98
  %105 = load i32, ptr %16, align 4
  %106 = load i32, ptr %14, align 4
  %107 = icmp ult i32 %105, %106
  br i1 %107, label %108, label %131

108:                                              ; preds = %104
  %109 = load ptr, ptr %15, align 8
  %110 = load i32, ptr %16, align 4
  %111 = sext i32 %110 to i64
  %112 = getelementptr inbounds %struct.Decl_, ptr %109, i64 %111
  %113 = getelementptr inbounds %struct.Decl_, ptr %112, i32 0, i32 0
  %114 = load ptr, ptr %113, align 8
  %115 = load ptr, ptr %15, align 8
  %116 = getelementptr inbounds %struct.Decl_, ptr %115, i32 0, i32 0
  %117 = load ptr, ptr %116, align 8
  %118 = icmp eq ptr %114, %117
  br i1 %118, label %119, label %127

119:                                              ; preds = %108
  %120 = load ptr, ptr %15, align 8
  %121 = getelementptr inbounds %struct.Decl_, ptr %120, i32 0, i32 2
  %122 = load ptr, ptr %15, align 8
  %123 = getelementptr inbounds %struct.Decl_, ptr %122, i32 0, i32 0
  %124 = load ptr, ptr %123, align 8
  %125 = getelementptr inbounds %union.SourceSpan, ptr %121, i32 0, i32 0
  %126 = load i64, ptr %125, align 8
  call void (i64, ptr, ...) @sema_error_at(i64 %126, ptr noundef @.str.54, ptr noundef %124)
  store i1 false, ptr %8, align 1
  br label %136

127:                                              ; preds = %108
  br label %128

128:                                              ; preds = %127
  %129 = load i32, ptr %16, align 4
  %130 = add nsw i32 %129, 1
  store i32 %130, ptr %16, align 4
  br label %104, !llvm.loop !27

131:                                              ; preds = %104
  br label %132

132:                                              ; preds = %131
  %133 = load i32, ptr %14, align 4
  %134 = add i32 %133, 1
  store i32 %134, ptr %14, align 4
  br label %56, !llvm.loop !28

135:                                              ; preds = %56
  store i1 true, ptr %8, align 1
  br label %136

136:                                              ; preds = %135, %119, %93, %82, %71, %39, %24
  %137 = load i1, ptr %8, align 1
  ret i1 %137
}