; Function Attrs: nounwind uwtable
define internal fastcc noundef zeroext i1 @sema_analyse_attribute_decl(ptr noundef %0, ptr noundef %1, ptr nocapture noundef %2) unnamed_addr #0 {
  %4 = getelementptr inbounds i8, ptr %1, i64 64
  %5 = load ptr, ptr %4, align 8
  %6 = tail call fastcc noundef zeroext i1 @sema_analyse_attributes_inner(ptr noundef %0, ptr noundef %1, ptr noundef %5, i32 noundef 256, ptr noundef null, ptr noundef %2)
  br i1 %6, label %12, label %7

7:                                                ; preds = %3
  %8 = getelementptr inbounds i8, ptr %1, i64 24
  %9 = load i64, ptr %8, align 8
  %10 = and i64 %9, -1024
  %11 = or disjoint i64 %10, 256
  store i64 %11, ptr %8, align 8
  br label %.loopexit

12:                                               ; preds = %3
  %13 = load i8, ptr %2, align 1
  %14 = trunc i8 %13 to i1
  br i1 %14, label %.loopexit, label %15

15:                                               ; preds = %12
  %16 = getelementptr inbounds i8, ptr %1, i64 80
  %17 = load ptr, ptr %16, align 8
  %.not = icmp eq ptr %17, null
  br i1 %.not, label %.loopexit, label %18

18:                                               ; preds = %15
  %19 = getelementptr inbounds i8, ptr %17, i64 -8
  %20 = load i32, ptr %19, align 4
  %.not50 = icmp eq i32 %20, 0
  br i1 %.not50, label %.loopexit, label %.lr.ph49

.lr.ph49:                                         ; preds = %18, %._crit_edge
  %.03547 = phi i32 [ %56, %._crit_edge ], [ 0, %18 ]
  %21 = zext i32 %.03547 to i64
  %22 = getelementptr inbounds ptr, ptr %17, i64 %21
  %23 = load ptr, ptr %22, align 8
  %24 = getelementptr inbounds i8, ptr %23, i64 80
  %25 = load i32, ptr %24, align 8
  %26 = and i32 %25, 255
  %.not39 = icmp eq i32 %26, 3
  br i1 %.not39, label %30, label %27

27:                                               ; preds = %.lr.ph49
  %28 = getelementptr inbounds i8, ptr %23, i64 16
  %29 = load i64, ptr %28, align 8
  tail call void (i64, ptr, ...) @sema_error_at(i64 %29, ptr noundef nonnull @.str.247) #10
  br label %.loopexit

30:                                               ; preds = %.lr.ph49
  %31 = getelementptr inbounds i8, ptr %23, i64 84
  %32 = load i32, ptr %31, align 4
  %.not40 = icmp eq i32 %32, 0
  br i1 %.not40, label %36, label %33

33:                                               ; preds = %30
  %34 = getelementptr inbounds i8, ptr %23, i64 16
  %35 = load i64, ptr %34, align 8
  tail call void (i64, ptr, ...) @sema_error_at(i64 %35, ptr noundef nonnull @.str.248) #10
  br label %.loopexit

36:                                               ; preds = %30
  %37 = getelementptr inbounds i8, ptr %23, i64 88
  %38 = load ptr, ptr %37, align 8
  %.not41 = icmp eq ptr %38, null
  br i1 %.not41, label %42, label %39

39:                                               ; preds = %36
  %40 = getelementptr inbounds i8, ptr %23, i64 16
  %41 = load i64, ptr %40, align 8
  tail call void (i64, ptr, ...) @sema_error_at(i64 %41, ptr noundef nonnull @.str.249) #10
  br label %.loopexit

42:                                               ; preds = %36
  %43 = getelementptr inbounds i8, ptr %23, i64 24
  %44 = load i64, ptr %43, align 8
  %45 = and i64 %44, -897
  %46 = or disjoint i64 %45, 256
  store i64 %46, ptr %43, align 8
  %.not51 = icmp eq i32 %.03547, 0
  br i1 %.not51, label %._crit_edge, label %.lr.ph

.lr.ph:                                           ; preds = %42
  %47 = load ptr, ptr %23, align 8
  br label %49

48:                                               ; preds = %49
  %indvars.iv.next = add nuw nsw i64 %indvars.iv, 1
  %exitcond.not = icmp eq i64 %indvars.iv.next, %21
  br i1 %exitcond.not, label %._crit_edge, label %49, !llvm.loop !27

49:                                               ; preds = %.lr.ph, %48
  %indvars.iv = phi i64 [ 0, %.lr.ph ], [ %indvars.iv.next, %48 ]
  %50 = getelementptr inbounds %struct.Decl_, ptr %23, i64 %indvars.iv
  %51 = load ptr, ptr %50, align 8
  %52 = icmp eq ptr %51, %47
  br i1 %52, label %53, label %48

53:                                               ; preds = %49
  %54 = getelementptr inbounds i8, ptr %23, i64 16
  %55 = load i64, ptr %54, align 8
  tail call void (i64, ptr, ...) @sema_error_at(i64 %55, ptr noundef nonnull @.str.54, ptr noundef %47) #10
  br label %.loopexit

._crit_edge:                                      ; preds = %48, %42
  %56 = add nuw i32 %.03547, 1
  %exitcond58.not = icmp eq i32 %56, %20
  br i1 %exitcond58.not, label %.loopexit, label %.lr.ph49, !llvm.loop !28

.loopexit:                                        ; preds = %._crit_edge, %15, %18, %12, %53, %39, %33, %27, %7
  %.036 = phi i1 [ false, %27 ], [ false, %33 ], [ false, %39 ], [ false, %53 ], [ false, %7 ], [ true, %12 ], [ true, %18 ], [ true, %15 ], [ true, %._crit_edge ]
  ret i1 %.036
}